; ModuleID = 'source-C-CXX/5/3244.c'
source_filename = "source-C-CXX/5/3244.c"
target datalayout = "e-m:e-p270:32:32-p271:32:32-p272:64:64-i64:64-f80:128-n8:16:32:64-S128"
target triple = "x86_64-pc-linux-gnu"

@.str = private unnamed_addr constant [3 x i8] c"%d\00", align 1
@.str.1 = private unnamed_addr constant [6 x i8] c"%d %d\00", align 1
@.str.2 = private unnamed_addr constant [4 x i8] c"%d\0A\00", align 1

; Function Attrs: nofree nounwind sspstrong uwtable
define dso_local i32 @main() local_unnamed_addr #0 {
  %1 = alloca i32, align 4
  %2 = alloca i32, align 4
  %3 = alloca i32, align 4
  %4 = alloca [100 x [100 x i32]], align 16
  %5 = bitcast i32* %1 to i8*
  call void @llvm.lifetime.start.p0i8(i64 4, i8* nonnull %5) #4
  %6 = bitcast i32* %2 to i8*
  call void @llvm.lifetime.start.p0i8(i64 4, i8* nonnull %6) #4
  %7 = bitcast i32* %3 to i8*
  call void @llvm.lifetime.start.p0i8(i64 4, i8* nonnull %7) #4
  %8 = bitcast [100 x [100 x i32]]* %4 to i8*
  call void @llvm.lifetime.start.p0i8(i64 40000, i8* nonnull %8) #4
  %9 = call i32 (i8*, ...) @__isoc99_scanf(i8* getelementptr inbounds ([3 x i8], [3 x i8]* @.str, i64 0, i64 0), i32* nonnull %1)
  %10 = load i32, i32* %1, align 4, !tbaa !5
  %11 = icmp slt i32 %10, 1
  br i1 %11, label %285, label %12

12:                                               ; preds = %0, %279
  %13 = phi i32 [ %282, %279 ], [ 1, %0 ]
  %14 = call i32 (i8*, ...) @__isoc99_scanf(i8* getelementptr inbounds ([6 x i8], [6 x i8]* @.str.1, i64 0, i64 0), i32* nonnull %2, i32* nonnull %3)
  %15 = load i32, i32* %2, align 4, !tbaa !5
  %16 = icmp sgt i32 %15, 0
  %17 = load i32, i32* %3, align 4
  %18 = icmp sgt i32 %17, 0
  %19 = select i1 %16, i1 %18, i1 false
  br i1 %19, label %258, label %279

20:                                               ; preds = %273
  %21 = icmp sgt i32 %274, 0
  %22 = icmp sgt i32 %275, 0
  %23 = select i1 %21, i1 %22, i1 false
  br i1 %23, label %24, label %279

24:                                               ; preds = %20
  %25 = add nsw i32 %275, -1
  %26 = add nsw i32 %274, -1
  %27 = zext i32 %25 to i64
  %28 = zext i32 %26 to i64
  %29 = zext i32 %274 to i64
  %30 = zext i32 %275 to i64
  %31 = icmp eq i32 %275, 1
  %32 = zext i32 %275 to i64
  %33 = getelementptr inbounds [100 x [100 x i32]], [100 x [100 x i32]]* %4, i64 0, i64 %28, i64 0
  %34 = icmp eq i32 %275, 1
  %35 = zext i32 %275 to i64
  %36 = add nsw i64 %35, -1
  %37 = add nsw i64 %30, -1
  %38 = add nsw i64 %30, -2
  %39 = add nsw i64 %30, -9
  %40 = lshr i64 %39, 3
  %41 = add nuw nsw i64 %40, 1
  %42 = and i64 %30, 4294967288
  %43 = add nsw i64 %42, -8
  %44 = lshr exact i64 %43, 3
  %45 = add nuw nsw i64 %44, 1
  %46 = and i64 %37, 3
  %47 = icmp ult i64 %38, 3
  %48 = and i64 %37, -4
  %49 = icmp eq i64 %46, 0
  %50 = icmp ult i64 %36, 8
  %51 = and i64 %36, -8
  %52 = or i64 %51, 1
  %53 = and i64 %41, 1
  %54 = icmp ult i64 %39, 8
  %55 = and i64 %41, 4611686018427387902
  %56 = icmp eq i64 %53, 0
  %57 = icmp eq i64 %36, %51
  %58 = icmp ult i32 %275, 8
  %59 = and i64 %35, 4294967288
  %60 = and i64 %45, 3
  %61 = icmp ult i64 %43, 24
  %62 = and i64 %45, 4611686018427387900
  %63 = icmp eq i64 %60, 0
  %64 = icmp eq i64 %59, %35
  br label %65

65:                                               ; preds = %24, %238
  %66 = phi i64 [ 0, %24 ], [ %240, %238 ]
  %67 = phi i32 [ 0, %24 ], [ %239, %238 ]
  %68 = icmp eq i64 %66, 0
  br i1 %68, label %69, label %157

69:                                               ; preds = %65
  br i1 %58, label %142, label %70

70:                                               ; preds = %69
  %71 = insertelement <4 x i32> <i32 poison, i32 0, i32 0, i32 0>, i32 %67, i32 0
  br i1 %61, label %115, label %72

72:                                               ; preds = %70, %72
  %73 = phi i64 [ %112, %72 ], [ 0, %70 ]
  %74 = phi <4 x i32> [ %110, %72 ], [ %71, %70 ]
  %75 = phi <4 x i32> [ %111, %72 ], [ zeroinitializer, %70 ]
  %76 = phi i64 [ %113, %72 ], [ %62, %70 ]
  %77 = getelementptr inbounds [100 x [100 x i32]], [100 x [100 x i32]]* %4, i64 0, i64 0, i64 %73
  %78 = bitcast i32* %77 to <4 x i32>*
  %79 = load <4 x i32>, <4 x i32>* %78, align 16, !tbaa !5
  %80 = getelementptr inbounds i32, i32* %77, i64 4
  %81 = bitcast i32* %80 to <4 x i32>*
  %82 = load <4 x i32>, <4 x i32>* %81, align 16, !tbaa !5
  %83 = add <4 x i32> %79, %74
  %84 = add <4 x i32> %82, %75
  %85 = or i64 %73, 8
  %86 = getelementptr inbounds [100 x [100 x i32]], [100 x [100 x i32]]* %4, i64 0, i64 0, i64 %85
  %87 = bitcast i32* %86 to <4 x i32>*
  %88 = load <4 x i32>, <4 x i32>* %87, align 16, !tbaa !5
  %89 = getelementptr inbounds i32, i32* %86, i64 4
  %90 = bitcast i32* %89 to <4 x i32>*
  %91 = load <4 x i32>, <4 x i32>* %90, align 16, !tbaa !5
  %92 = add <4 x i32> %88, %83
  %93 = add <4 x i32> %91, %84
  %94 = or i64 %73, 16
  %95 = getelementptr inbounds [100 x [100 x i32]], [100 x [100 x i32]]* %4, i64 0, i64 0, i64 %94
  %96 = bitcast i32* %95 to <4 x i32>*
  %97 = load <4 x i32>, <4 x i32>* %96, align 16, !tbaa !5
  %98 = getelementptr inbounds i32, i32* %95, i64 4
  %99 = bitcast i32* %98 to <4 x i32>*
  %100 = load <4 x i32>, <4 x i32>* %99, align 16, !tbaa !5
  %101 = add <4 x i32> %97, %92
  %102 = add <4 x i32> %100, %93
  %103 = or i64 %73, 24
  %104 = getelementptr inbounds [100 x [100 x i32]], [100 x [100 x i32]]* %4, i64 0, i64 0, i64 %103
  %105 = bitcast i32* %104 to <4 x i32>*
  %106 = load <4 x i32>, <4 x i32>* %105, align 16, !tbaa !5
  %107 = getelementptr inbounds i32, i32* %104, i64 4
  %108 = bitcast i32* %107 to <4 x i32>*
  %109 = load <4 x i32>, <4 x i32>* %108, align 16, !tbaa !5
  %110 = add <4 x i32> %106, %101
  %111 = add <4 x i32> %109, %102
  %112 = add nuw i64 %73, 32
  %113 = add i64 %76, -4
  %114 = icmp eq i64 %113, 0
  br i1 %114, label %115, label %72, !llvm.loop !9

115:                                              ; preds = %72, %70
  %116 = phi <4 x i32> [ undef, %70 ], [ %110, %72 ]
  %117 = phi <4 x i32> [ undef, %70 ], [ %111, %72 ]
  %118 = phi i64 [ 0, %70 ], [ %112, %72 ]
  %119 = phi <4 x i32> [ %71, %70 ], [ %110, %72 ]
  %120 = phi <4 x i32> [ zeroinitializer, %70 ], [ %111, %72 ]
  br i1 %63, label %137, label %121

121:                                              ; preds = %115, %121
  %122 = phi i64 [ %134, %121 ], [ %118, %115 ]
  %123 = phi <4 x i32> [ %132, %121 ], [ %119, %115 ]
  %124 = phi <4 x i32> [ %133, %121 ], [ %120, %115 ]
  %125 = phi i64 [ %135, %121 ], [ %60, %115 ]
  %126 = getelementptr inbounds [100 x [100 x i32]], [100 x [100 x i32]]* %4, i64 0, i64 0, i64 %122
  %127 = bitcast i32* %126 to <4 x i32>*
  %128 = load <4 x i32>, <4 x i32>* %127, align 16, !tbaa !5
  %129 = getelementptr inbounds i32, i32* %126, i64 4
  %130 = bitcast i32* %129 to <4 x i32>*
  %131 = load <4 x i32>, <4 x i32>* %130, align 16, !tbaa !5
  %132 = add <4 x i32> %128, %123
  %133 = add <4 x i32> %131, %124
  %134 = add nuw i64 %122, 8
  %135 = add i64 %125, -1
  %136 = icmp eq i64 %135, 0
  br i1 %136, label %137, label %121, !llvm.loop !12

137:                                              ; preds = %121, %115
  %138 = phi <4 x i32> [ %116, %115 ], [ %132, %121 ]
  %139 = phi <4 x i32> [ %117, %115 ], [ %133, %121 ]
  %140 = add <4 x i32> %139, %138
  %141 = call i32 @llvm.vector.reduce.add.v4i32(<4 x i32> %140)
  br i1 %64, label %238, label %142

142:                                              ; preds = %69, %137
  %143 = phi i64 [ 0, %69 ], [ %59, %137 ]
  %144 = phi i32 [ %67, %69 ], [ %141, %137 ]
  br label %242

145:                                              ; preds = %163, %303
  %146 = phi i64 [ %305, %303 ], [ 1, %163 ]
  %147 = phi i32 [ %304, %303 ], [ %162, %163 ]
  %148 = phi i64 [ %306, %303 ], [ %48, %163 ]
  %149 = icmp eq i64 %146, %27
  br i1 %149, label %150, label %153

150:                                              ; preds = %145
  %151 = load i32, i32* %164, align 4, !tbaa !5
  %152 = add nsw i32 %151, %147
  br label %153

153:                                              ; preds = %150, %145
  %154 = phi i32 [ %152, %150 ], [ %147, %145 ]
  %155 = add nuw nsw i64 %146, 1
  %156 = icmp eq i64 %155, %27
  br i1 %156, label %286, label %289

157:                                              ; preds = %65
  %158 = icmp eq i64 %66, %28
  br i1 %158, label %165, label %159

159:                                              ; preds = %157
  %160 = getelementptr inbounds [100 x [100 x i32]], [100 x [100 x i32]]* %4, i64 0, i64 %66, i64 0
  %161 = load i32, i32* %160, align 16, !tbaa !5
  %162 = add nsw i32 %161, %67
  br i1 %31, label %238, label %163

163:                                              ; preds = %159
  %164 = getelementptr inbounds [100 x [100 x i32]], [100 x [100 x i32]]* %4, i64 0, i64 %66, i64 %27
  br i1 %47, label %221, label %145

165:                                              ; preds = %157
  %166 = load i32, i32* %33, align 16, !tbaa !5
  %167 = add nsw i32 %166, %67
  br i1 %34, label %238, label %168

168:                                              ; preds = %165
  br i1 %50, label %218, label %169

169:                                              ; preds = %168
  %170 = insertelement <4 x i32> <i32 poison, i32 0, i32 0, i32 0>, i32 %167, i32 0
  br i1 %54, label %197, label %171

171:                                              ; preds = %169, %171
  %172 = phi i64 [ %194, %171 ], [ 0, %169 ]
  %173 = phi <4 x i32> [ %192, %171 ], [ %170, %169 ]
  %174 = phi <4 x i32> [ %193, %171 ], [ zeroinitializer, %169 ]
  %175 = phi i64 [ %195, %171 ], [ %55, %169 ]
  %176 = or i64 %172, 1
  %177 = getelementptr inbounds [100 x [100 x i32]], [100 x [100 x i32]]* %4, i64 0, i64 %28, i64 %176
  %178 = bitcast i32* %177 to <4 x i32>*
  %179 = load <4 x i32>, <4 x i32>* %178, align 4, !tbaa !5
  %180 = getelementptr inbounds i32, i32* %177, i64 4
  %181 = bitcast i32* %180 to <4 x i32>*
  %182 = load <4 x i32>, <4 x i32>* %181, align 4, !tbaa !5
  %183 = add <4 x i32> %179, %173
  %184 = add <4 x i32> %182, %174
  %185 = or i64 %172, 9
  %186 = getelementptr inbounds [100 x [100 x i32]], [100 x [100 x i32]]* %4, i64 0, i64 %28, i64 %185
  %187 = bitcast i32* %186 to <4 x i32>*
  %188 = load <4 x i32>, <4 x i32>* %187, align 4, !tbaa !5
  %189 = getelementptr inbounds i32, i32* %186, i64 4
  %190 = bitcast i32* %189 to <4 x i32>*
  %191 = load <4 x i32>, <4 x i32>* %190, align 4, !tbaa !5
  %192 = add <4 x i32> %188, %183
  %193 = add <4 x i32> %191, %184
  %194 = add nuw i64 %172, 16
  %195 = add i64 %175, -2
  %196 = icmp eq i64 %195, 0
  br i1 %196, label %197, label %171, !llvm.loop !14

197:                                              ; preds = %171, %169
  %198 = phi <4 x i32> [ undef, %169 ], [ %192, %171 ]
  %199 = phi <4 x i32> [ undef, %169 ], [ %193, %171 ]
  %200 = phi i64 [ 0, %169 ], [ %194, %171 ]
  %201 = phi <4 x i32> [ %170, %169 ], [ %192, %171 ]
  %202 = phi <4 x i32> [ zeroinitializer, %169 ], [ %193, %171 ]
  br i1 %56, label %213, label %203

203:                                              ; preds = %197
  %204 = or i64 %200, 1
  %205 = getelementptr inbounds [100 x [100 x i32]], [100 x [100 x i32]]* %4, i64 0, i64 %28, i64 %204
  %206 = getelementptr inbounds i32, i32* %205, i64 4
  %207 = bitcast i32* %206 to <4 x i32>*
  %208 = load <4 x i32>, <4 x i32>* %207, align 4, !tbaa !5
  %209 = add <4 x i32> %208, %202
  %210 = bitcast i32* %205 to <4 x i32>*
  %211 = load <4 x i32>, <4 x i32>* %210, align 4, !tbaa !5
  %212 = add <4 x i32> %211, %201
  br label %213

213:                                              ; preds = %197, %203
  %214 = phi <4 x i32> [ %198, %197 ], [ %212, %203 ]
  %215 = phi <4 x i32> [ %199, %197 ], [ %209, %203 ]
  %216 = add <4 x i32> %215, %214
  %217 = call i32 @llvm.vector.reduce.add.v4i32(<4 x i32> %216)
  br i1 %57, label %238, label %218

218:                                              ; preds = %168, %213
  %219 = phi i64 [ 1, %168 ], [ %52, %213 ]
  %220 = phi i32 [ %167, %168 ], [ %217, %213 ]
  br label %250

221:                                              ; preds = %303, %163
  %222 = phi i32 [ undef, %163 ], [ %304, %303 ]
  %223 = phi i64 [ 1, %163 ], [ %305, %303 ]
  %224 = phi i32 [ %162, %163 ], [ %304, %303 ]
  br i1 %49, label %238, label %225

225:                                              ; preds = %221, %233
  %226 = phi i64 [ %235, %233 ], [ %223, %221 ]
  %227 = phi i32 [ %234, %233 ], [ %224, %221 ]
  %228 = phi i64 [ %236, %233 ], [ %46, %221 ]
  %229 = icmp eq i64 %226, %27
  br i1 %229, label %230, label %233

230:                                              ; preds = %225
  %231 = load i32, i32* %164, align 4, !tbaa !5
  %232 = add nsw i32 %231, %227
  br label %233

233:                                              ; preds = %230, %225
  %234 = phi i32 [ %232, %230 ], [ %227, %225 ]
  %235 = add nuw nsw i64 %226, 1
  %236 = add i64 %228, -1
  %237 = icmp eq i64 %236, 0
  br i1 %237, label %238, label %225, !llvm.loop !16

238:                                              ; preds = %221, %233, %250, %242, %213, %137, %159, %165
  %239 = phi i32 [ %167, %165 ], [ %162, %159 ], [ %141, %137 ], [ %217, %213 ], [ %247, %242 ], [ %255, %250 ], [ %222, %221 ], [ %234, %233 ]
  %240 = add nuw nsw i64 %66, 1
  %241 = icmp eq i64 %240, %29
  br i1 %241, label %279, label %65, !llvm.loop !17

242:                                              ; preds = %142, %242
  %243 = phi i64 [ %248, %242 ], [ %143, %142 ]
  %244 = phi i32 [ %247, %242 ], [ %144, %142 ]
  %245 = getelementptr inbounds [100 x [100 x i32]], [100 x [100 x i32]]* %4, i64 0, i64 0, i64 %243
  %246 = load i32, i32* %245, align 4, !tbaa !5
  %247 = add nsw i32 %246, %244
  %248 = add nuw nsw i64 %243, 1
  %249 = icmp eq i64 %248, %35
  br i1 %249, label %238, label %242, !llvm.loop !18

250:                                              ; preds = %218, %250
  %251 = phi i64 [ %256, %250 ], [ %219, %218 ]
  %252 = phi i32 [ %255, %250 ], [ %220, %218 ]
  %253 = getelementptr inbounds [100 x [100 x i32]], [100 x [100 x i32]]* %4, i64 0, i64 %28, i64 %251
  %254 = load i32, i32* %253, align 4, !tbaa !5
  %255 = add nsw i32 %254, %252
  %256 = add nuw nsw i64 %251, 1
  %257 = icmp eq i64 %256, %32
  br i1 %257, label %238, label %250, !llvm.loop !20

258:                                              ; preds = %12, %273
  %259 = phi i32 [ %274, %273 ], [ %15, %12 ]
  %260 = phi i32 [ %275, %273 ], [ %17, %12 ]
  %261 = phi i64 [ %276, %273 ], [ 0, %12 ]
  %262 = icmp sgt i32 %260, 0
  br i1 %262, label %263, label %273

263:                                              ; preds = %258, %263
  %264 = phi i64 [ %267, %263 ], [ 0, %258 ]
  %265 = getelementptr inbounds [100 x [100 x i32]], [100 x [100 x i32]]* %4, i64 0, i64 %261, i64 %264
  %266 = call i32 (i8*, ...) @__isoc99_scanf(i8* getelementptr inbounds ([3 x i8], [3 x i8]* @.str, i64 0, i64 0), i32* nonnull %265)
  %267 = add nuw nsw i64 %264, 1
  %268 = load i32, i32* %3, align 4, !tbaa !5
  %269 = sext i32 %268 to i64
  %270 = icmp slt i64 %267, %269
  br i1 %270, label %263, label %271, !llvm.loop !21

271:                                              ; preds = %263
  %272 = load i32, i32* %2, align 4, !tbaa !5
  br label %273

273:                                              ; preds = %271, %258
  %274 = phi i32 [ %272, %271 ], [ %259, %258 ]
  %275 = phi i32 [ %268, %271 ], [ %260, %258 ]
  %276 = add nuw nsw i64 %261, 1
  %277 = sext i32 %274 to i64
  %278 = icmp slt i64 %276, %277
  br i1 %278, label %258, label %20, !llvm.loop !22

279:                                              ; preds = %238, %12, %20
  %280 = phi i32 [ 0, %20 ], [ 0, %12 ], [ %239, %238 ]
  %281 = call i32 (i8*, ...) @printf(i8* nonnull dereferenceable(1) getelementptr inbounds ([4 x i8], [4 x i8]* @.str.2, i64 0, i64 0), i32 %280)
  %282 = add nuw nsw i32 %13, 1
  %283 = load i32, i32* %1, align 4, !tbaa !5
  %284 = icmp slt i32 %13, %283
  br i1 %284, label %12, label %285, !llvm.loop !24

285:                                              ; preds = %279, %0
  call void @llvm.lifetime.end.p0i8(i64 40000, i8* nonnull %8) #4
  call void @llvm.lifetime.end.p0i8(i64 4, i8* nonnull %7) #4
  call void @llvm.lifetime.end.p0i8(i64 4, i8* nonnull %6) #4
  call void @llvm.lifetime.end.p0i8(i64 4, i8* nonnull %5) #4
  ret i32 0

286:                                              ; preds = %153
  %287 = load i32, i32* %164, align 4, !tbaa !5
  %288 = add nsw i32 %287, %154
  br label %289

289:                                              ; preds = %286, %153
  %290 = phi i32 [ %288, %286 ], [ %154, %153 ]
  %291 = add nuw nsw i64 %146, 2
  %292 = icmp eq i64 %291, %27
  br i1 %292, label %293, label %296

293:                                              ; preds = %289
  %294 = load i32, i32* %164, align 4, !tbaa !5
  %295 = add nsw i32 %294, %290
  br label %296

296:                                              ; preds = %293, %289
  %297 = phi i32 [ %295, %293 ], [ %290, %289 ]
  %298 = add nuw nsw i64 %146, 3
  %299 = icmp eq i64 %298, %27
  br i1 %299, label %300, label %303

300:                                              ; preds = %296
  %301 = load i32, i32* %164, align 4, !tbaa !5
  %302 = add nsw i32 %301, %297
  br label %303

303:                                              ; preds = %300, %296
  %304 = phi i32 [ %302, %300 ], [ %297, %296 ]
  %305 = add nuw nsw i64 %146, 4
  %306 = add i64 %148, -4
  %307 = icmp eq i64 %306, 0
  br i1 %307, label %221, label %145, !llvm.loop !25
}

; Function Attrs: argmemonly mustprogress nofree nosync nounwind willreturn
declare void @llvm.lifetime.start.p0i8(i64 immarg, i8* nocapture) #1

; Function Attrs: nofree nounwind
declare noundef i32 @__isoc99_scanf(i8* nocapture noundef readonly, ...) local_unnamed_addr #2

; Function Attrs: nofree nounwind
declare noundef i32 @printf(i8* nocapture noundef readonly, ...) local_unnamed_addr #2

; Function Attrs: argmemonly mustprogress nofree nosync nounwind willreturn
declare void @llvm.lifetime.end.p0i8(i64 immarg, i8* nocapture) #1

; Function Attrs: nofree nosync nounwind readnone willreturn
declare i32 @llvm.vector.reduce.add.v4i32(<4 x i32>) #3


!llvm.module.flags = !{!0, !1, !2, !3}
!llvm.ident = !{!4}

!0 = !{i32 1, !"wchar_size", i32 4}
!1 = !{i32 7, !"PIC Level", i32 2}
!2 = !{i32 7, !"PIE Level", i32 2}
!3 = !{i32 7, !"uwtable", i32 1}
!4 = !{!"clang version 13.0.0"}
!5 = !{!6, !6, i64 0}
!6 = !{!"int", !7, i64 0}
!7 = !{!"omnipotent char", !8, i64 0}
!8 = !{!"Simple C/C++ TBAA"}
!9 = distinct !{!9, !10, !11}
!10 = !{!"llvm.loop.mustprogress"}
!11 = !{!"llvm.loop.isvectorized", i32 1}
!12 = distinct !{!12, !13}
!13 = !{!"llvm.loop.unroll.disable"}
!14 = distinct !{!14, !10, !15, !11}
!15 = !{!"llvm.loop.peeled.count", i32 1}
!16 = distinct !{!16, !13}
!17 = distinct !{!17, !10}
!18 = distinct !{!18, !10, !19, !11}
!19 = !{!"llvm.loop.unroll.runtime.disable"}
!20 = distinct !{!20, !10, !15, !19, !11}
!21 = distinct !{!21, !10}
!22 = distinct !{!22, !10, !23}
!23 = !{!"llvm.loop.unswitch.partial.disable"}
!24 = distinct !{!24, !10}
!25 = distinct !{!25, !10, !15}
